; Function Attrs: mustprogress uwtable
define void @_ZN7rocksdb18BlockCreateContext6CreateEPSt10unique_ptrINS_21ParsedFullFilterBlockESt14default_deleteIS2_EEONS_13BlockContentsE(ptr noundef nonnull readonly align 8 captures(none) dereferenceable(48) %0, ptr noundef captures(none) %1, ptr noundef nonnull align 8 dereferenceable(32) %2) local_unnamed_addr #3 align 2 personality ptr @__gxx_personality_v0 {
  %4 = tail call noalias noundef nonnull dereferenceable(40) ptr @_Znwm(i64 noundef 40) #18
  %5 = load ptr, ptr %0, align 8, !tbaa !11
  %6 = getelementptr inbounds nuw i8, ptr %5, i64 184
  %7 = load ptr, ptr %6, align 8, !tbaa !74
  invoke void @_ZN7rocksdb21ParsedFullFilterBlockC1EPKNS_12FilterPolicyEONS_13BlockContentsE(ptr noundef nonnull align 8 dereferenceable(40) %4, ptr noundef %7, ptr noundef nonnull align 8 dereferenceable(32) %2)
          to label %8 unwind label %10

8:                                                ; preds = %3
  %9 = load ptr, ptr %1, align 8, !tbaa !75
  store ptr %4, ptr %1, align 8, !tbaa !75
  %.not.i.i = icmp eq ptr %9, null
  br i1 %.not.i.i, label %_ZNSt10unique_ptrIN7rocksdb21ParsedFullFilterBlockESt14default_deleteIS1_EE5resetEPS1_.exit, label %_ZNKSt14default_deleteIN7rocksdb21ParsedFullFilterBlockEEclEPS1_.exit.i.i

_ZNKSt14default_deleteIN7rocksdb21ParsedFullFilterBlockEEclEPS1_.exit.i.i: ; preds = %8
  tail call void @_ZN7rocksdb21ParsedFullFilterBlockD1Ev(ptr noundef nonnull align 8 dereferenceable(40) %9) #19
  tail call void @_ZdlPvm(ptr noundef nonnull %9, i64 noundef 40) #17
  br label %_ZNSt10unique_ptrIN7rocksdb21ParsedFullFilterBlockESt14default_deleteIS1_EE5resetEPS1_.exit

_ZNSt10unique_ptrIN7rocksdb21ParsedFullFilterBlockESt14default_deleteIS1_EE5resetEPS1_.exit: ; preds = %8, %_ZNKSt14default_deleteIN7rocksdb21ParsedFullFilterBlockEEclEPS1_.exit.i.i
  ret void

10:                                               ; preds = %3
  %11 = landingpad { ptr, i32 }
          cleanup
  tail call void @_ZdlPvm(ptr noundef nonnull %4, i64 noundef 40) #17
  resume { ptr, i32 } %11
}